(dp1
(Vzhihu
p2
S'pending'
p3
tp4
ccopy_reg
_reconstructor
p5
(cpyspider.libs.counter
TotalCounter
p6
c__builtin__
object
p7
NtRp8
(dp9
S'cnt'
p10
I0
sbs(S'v2ex'
S'pending'
tp11
g5
(g6
g7
NtRp12
(dp13
g10
I2227
sbs(g2
S'failed'
p14
tp15
g5
(g6
g7
NtRp16
(dp17
g10
I0
sbs(g2
S'success'
p18
tp19
g5
(g6
g7
NtRp20
(dp21
g10
I0
sbs(Vv2ex
S'success'
tp22
g5
(g6
g7
NtRp23
(dp24
g10
I112
sbs.